; Function Attrs: mustprogress uwtable
define noundef zeroext i1 @_ZN6google8protobuf10TextFormat25ParseFieldValueFromStringESt17basic_string_viewIcSt11char_traitsIcEEPKNS0_15FieldDescriptorEPNS0_7MessageE(i64 %input.coerce0, ptr %input.coerce1, ptr noundef %field, ptr noundef %message) local_unnamed_addr #4 align 2 personality ptr @__gxx_personality_v0 {
entry:
  %ref.tmp = alloca %"class.google::protobuf::TextFormat::Parser", align 8
  call void @_ZN6google8protobuf10TextFormat6ParserC1Ev(ptr noundef nonnull align 8 dereferenceable(48) %ref.tmp)
  %call = invoke noundef zeroext i1 @_ZN6google8protobuf10TextFormat6Parser25ParseFieldValueFromStringESt17basic_string_viewIcSt11char_traitsIcEEPKNS0_15FieldDescriptorEPNS0_7MessageE(ptr noundef nonnull align 8 dereferenceable(48) %ref.tmp, i64 %input.coerce0, ptr %input.coerce1, ptr noundef %field, ptr noundef %message)
          to label %invoke.cont unwind label %lpad

invoke.cont:                                      ; preds = %entry
  call void @_ZN6google8protobuf10TextFormat6ParserD1Ev(ptr noundef nonnull align 8 dereferenceable(48) %ref.tmp) #34
  ret i1 %call

lpad:                                             ; preds = %entry
  %0 = landingpad { ptr, i32 }
          cleanup
  call void @_ZN6google8protobuf10TextFormat6ParserD1Ev(ptr noundef nonnull align 8 dereferenceable(48) %ref.tmp) #34
  resume { ptr, i32 } %0
}